target datalayout = "e-m:e-p270:32:32-p271:32:32-p272:64:64-i64:64-i128:128-f80:128-n8:16:32:64-S128"
target triple = "x86_64-pc-linux-gnu"

%"class.std::_Function_base" = type { %"union.std::_Any_data", ptr }
%"union.std::_Any_data" = type { %"union.std::_Nocopy_types" }
%"union.std::_Nocopy_types" = type { { i64, i64 } }
%class.rfb_t = type { %class.device_t, i32, i32, ptr, i64, i16, i16, i16, i32, i64, ptr, ptr, i64, %union.pthread_mutex_t }
%class.device_t = type { ptr, %"class.std::vector", %"class.std::vector.0" }
%"class.std::vector" = type { %"struct.std::_Vector_base" }
%"struct.std::_Vector_base" = type { %"struct.std::_Vector_base<std::function<void (command_t)>, std::allocator<std::function<void (command_t)>>>::_Vector_impl" }
%"struct.std::_Vector_base<std::function<void (command_t)>, std::allocator<std::function<void (command_t)>>>::_Vector_impl" = type { %"struct.std::_Vector_base<std::function<void (command_t)>, std::allocator<std::function<void (command_t)>>>::_Vector_impl_data" }
%"struct.std::_Vector_base<std::function<void (command_t)>, std::allocator<std::function<void (command_t)>>>::_Vector_impl_data" = type { ptr, ptr, ptr }
%"class.std::vector.0" = type { %"struct.std::_Vector_base.1" }
%"struct.std::_Vector_base.1" = type { %"struct.std::_Vector_base<std::__cxx11::basic_string<char>, std::allocator<std::__cxx11::basic_string<char>>>::_Vector_impl" }
%"struct.std::_Vector_base<std::__cxx11::basic_string<char>, std::allocator<std::__cxx11::basic_string<char>>>::_Vector_impl" = type { %"struct.std::_Vector_base<std::__cxx11::basic_string<char>, std::allocator<std::__cxx11::basic_string<char>>>::_Vector_impl_data" }
%"struct.std::_Vector_base<std::__cxx11::basic_string<char>, std::allocator<std::__cxx11::basic_string<char>>>::_Vector_impl_data" = type { ptr, ptr, ptr }
%union.pthread_mutex_t = type { %struct.__pthread_mutex_s }
%struct.__pthread_mutex_s = type { i32, i32, i32, i32, i32, i16, i16, %struct.__pthread_internal_list }
%struct.__pthread_internal_list = type { ptr, ptr }
%"class.std::__cxx11::basic_string" = type { %"struct.std::__cxx11::basic_string<char>::_Alloc_hider", i64, %union.anon.13 }
%"struct.std::__cxx11::basic_string<char>::_Alloc_hider" = type { ptr }
%union.anon.13 = type { i64, [8 x i8] }
%class.command_t = type { ptr, i64, %"class.std::function.7" }
%"class.std::function.7" = type { %"class.std::_Function_base", ptr }

@_ZTISt13runtime_error = external constant ptr
@.str.13 = private unnamed_addr constant [45 x i8] c"you must only set the rfb configuration once\00", align 1
@.str.14 = private unnamed_addr constant [31 x i8] c"rfb requires 32 bpp true color\00", align 1
@.str.15 = private unnamed_addr constant [32 x i8] c"rfb size must be a multiple of \00", align 1
@.str.16 = private unnamed_addr constant [24 x i8] c"could not create thread\00", align 1

; Function Attrs: mustprogress nounwind uwtable
define linkonce_odr noundef zeroext i1 @_ZNKSt14_Function_base8_M_emptyEv(ptr noundef nonnull align 8 dereferenceable(24) %0) #4 comdat align 2 {
  %2 = alloca ptr, align 8
  store ptr %0, ptr %2, align 8
  %3 = load ptr, ptr %2, align 8
  %4 = getelementptr inbounds %"class.std::_Function_base", ptr %3, i32 0, i32 1
  %5 = load ptr, ptr %4, align 8
  %6 = icmp ne ptr %5, null
  %7 = xor i1 %6, true
  ret i1 %7
}

; Function Attrs: mustprogress uwtable
define linkonce_odr void @_ZNKSt8functionIFvmEEclEm(ptr noundef nonnull align 8 dereferenceable(32) %0, i64 noundef %1) #0 comdat align 2 {
  %3 = alloca ptr, align 8
  %4 = alloca i64, align 8
  store ptr %0, ptr %3, align 8
  store i64 %1, ptr %4, align 8
  %5 = load ptr, ptr %3, align 8
  %6 = call noundef zeroext i1 @_ZNKSt14_Function_base8_M_emptyEv(ptr noundef nonnull align 8 dereferenceable(24) %5)
  br i1 %6, label %7, label %8

7:                                                ; preds = %2
  call void @_ZSt25__throw_bad_function_callv() #15
  unreachable

8:                                                ; preds = %2
  %9 = getelementptr inbounds %"class.std::function.7", ptr %5, i32 0, i32 1
  %10 = load ptr, ptr %9, align 8
  %11 = getelementptr inbounds %"class.std::_Function_base", ptr %5, i32 0, i32 0
  call void %10(ptr noundef nonnull align 8 dereferenceable(16) %11, ptr noundef nonnull align 8 dereferenceable(8) %4)
  ret void
}

; Function Attrs: mustprogress uwtable
define linkonce_odr void @_ZN9command_t7respondEm(ptr noundef nonnull align 8 dereferenceable(48) %0, i64 noundef %1) #0 comdat align 2 {
  %3 = alloca ptr, align 8
  %4 = alloca i64, align 8
  store ptr %0, ptr %3, align 8
  store i64 %1, ptr %4, align 8
  %5 = load ptr, ptr %3, align 8
  %6 = getelementptr inbounds %class.command_t, ptr %5, i32 0, i32 2
  %7 = getelementptr inbounds %class.command_t, ptr %5, i32 0, i32 1
  %8 = load i64, ptr %7, align 8
  %9 = lshr i64 %8, 48
  %10 = shl i64 %9, 48
  %11 = load i64, ptr %4, align 8
  %12 = shl i64 %11, 16
  %13 = lshr i64 %12, 16
  %14 = or i64 %10, %13
  call void @_ZNKSt8functionIFvmEEclEm(ptr noundef nonnull align 8 dereferenceable(32) %6, i64 noundef %14)
  ret void
}

; Function Attrs: mustprogress nounwind uwtable
define linkonce_odr noundef i64 @_ZN5rfb_t8fb_bytesEv(ptr noundef nonnull align 8 dereferenceable(168) %0) #4 comdat align 2 {
  %2 = alloca ptr, align 8
  store ptr %0, ptr %2, align 8
  %3 = load ptr, ptr %2, align 8
  %4 = getelementptr inbounds %class.rfb_t, ptr %3, i32 0, i32 5
  %5 = load i16, ptr %4, align 8
  %6 = zext i16 %5 to i64
  %7 = getelementptr inbounds %class.rfb_t, ptr %3, i32 0, i32 6
  %8 = load i16, ptr %7, align 2
  %9 = zext i16 %8 to i64
  %10 = mul i64 %6, %9
  %11 = getelementptr inbounds %class.rfb_t, ptr %3, i32 0, i32 7
  %12 = load i16, ptr %11, align 4
  %13 = zext i16 %12 to i64
  %14 = mul i64 %10, %13
  %15 = udiv i64 %14, 8
  ret i64 %15
}

; Function Attrs: mustprogress nounwind uwtable
define linkonce_odr noundef i64 @_ZN9command_t7payloadEv(ptr noundef nonnull align 8 dereferenceable(48) %0) #4 comdat align 2 {
  %2 = alloca ptr, align 8
  store ptr %0, ptr %2, align 8
  %3 = load ptr, ptr %2, align 8
  %4 = getelementptr inbounds %class.command_t, ptr %3, i32 0, i32 1
  %5 = load i64, ptr %4, align 8
  %6 = shl i64 %5, 16
  %7 = lshr i64 %6, 16
  ret i64 %7
}

; Function Attrs: mustprogress uwtable
define void @_ZN5rfb_t16handle_configureE9command_t(ptr noundef nonnull align 8 dereferenceable(168) %0, ptr noundef %1) #0 align 2 personality ptr @__gxx_personality_v0 {
  %3 = alloca ptr, align 8
  %4 = alloca ptr, align 8
  %5 = alloca ptr, align 8
  %6 = alloca i32, align 4
  %7 = alloca %"class.std::__cxx11::basic_string", align 8
  %8 = alloca %"class.std::__cxx11::basic_string", align 8
  %9 = alloca i1, align 1
  store ptr %0, ptr %3, align 8
  store ptr %1, ptr %4, align 8
  %10 = load ptr, ptr %3, align 8
  %11 = getelementptr inbounds %class.rfb_t, ptr %10, i32 0, i32 10
  %12 = load volatile ptr, ptr %11, align 8
  %13 = icmp ne ptr %12, null
  br i1 %13, label %14, label %21

14:                                               ; preds = %2
  %15 = call ptr @__cxa_allocate_exception(i64 16) #14
  invoke void @_ZNSt13runtime_errorC1EPKc(ptr noundef nonnull align 8 dereferenceable(16) %15, ptr noundef @.str.13)
          to label %16 unwind label %17

16:                                               ; preds = %14
  call void @__cxa_throw(ptr %15, ptr @_ZTISt13runtime_error, ptr @_ZNSt13runtime_errorD1Ev) #15
  unreachable

17:                                               ; preds = %14
  %18 = landingpad { ptr, i32 }
          cleanup
  %19 = extractvalue { ptr, i32 } %18, 0
  store ptr %19, ptr %5, align 8
  %20 = extractvalue { ptr, i32 } %18, 1
  store i32 %20, ptr %6, align 4
  call void @__cxa_free_exception(ptr %15) #14
  br label %82

21:                                               ; preds = %2
  %22 = call noundef i64 @_ZN9command_t7payloadEv(ptr noundef nonnull align 8 dereferenceable(48) %1)
  %23 = trunc i64 %22 to i16
  %24 = getelementptr inbounds %class.rfb_t, ptr %10, i32 0, i32 5
  store i16 %23, ptr %24, align 8
  %25 = call noundef i64 @_ZN9command_t7payloadEv(ptr noundef nonnull align 8 dereferenceable(48) %1)
  %26 = lshr i64 %25, 16
  %27 = trunc i64 %26 to i16
  %28 = getelementptr inbounds %class.rfb_t, ptr %10, i32 0, i32 6
  store i16 %27, ptr %28, align 2
  %29 = call noundef i64 @_ZN9command_t7payloadEv(ptr noundef nonnull align 8 dereferenceable(48) %1)
  %30 = lshr i64 %29, 32
  %31 = trunc i64 %30 to i16
  %32 = getelementptr inbounds %class.rfb_t, ptr %10, i32 0, i32 7
  store i16 %31, ptr %32, align 4
  %33 = getelementptr inbounds %class.rfb_t, ptr %10, i32 0, i32 7
  %34 = load i16, ptr %33, align 4
  %35 = zext i16 %34 to i32
  %36 = icmp ne i32 %35, 32
  br i1 %36, label %37, label %44

37:                                               ; preds = %21
  %38 = call ptr @__cxa_allocate_exception(i64 16) #14
  invoke void @_ZNSt13runtime_errorC1EPKc(ptr noundef nonnull align 8 dereferenceable(16) %38, ptr noundef @.str.14)
          to label %39 unwind label %40

39:                                               ; preds = %37
  call void @__cxa_throw(ptr %38, ptr @_ZTISt13runtime_error, ptr @_ZNSt13runtime_errorD1Ev) #15
  unreachable

40:                                               ; preds = %37
  %41 = landingpad { ptr, i32 }
          cleanup
  %42 = extractvalue { ptr, i32 } %41, 0
  store ptr %42, ptr %5, align 8
  %43 = extractvalue { ptr, i32 } %41, 1
  store i32 %43, ptr %6, align 4
  call void @__cxa_free_exception(ptr %38) #14
  br label %82

44:                                               ; preds = %21
  %45 = call noundef i64 @_ZN5rfb_t8fb_bytesEv(ptr noundef nonnull align 8 dereferenceable(168) %10)
  %46 = urem i64 %45, 256
  %47 = icmp ne i64 %46, 0
  br i1 %47, label %48, label %64

48:                                               ; preds = %44
  store i1 true, ptr %9, align 1
  %49 = call ptr @__cxa_allocate_exception(i64 16) #14
  call void @_ZNSt7__cxx119to_stringEi(ptr dead_on_unwind writable sret(%"class.std::__cxx11::basic_string") align 8 %8, i32 noundef 256) #14
  invoke void @_ZStplIcSt11char_traitsIcESaIcEENSt7__cxx1112basic_stringIT_T0_T1_EEPKS5_OS8_(ptr dead_on_unwind writable sret(%"class.std::__cxx11::basic_string") align 8 %7, ptr noundef @.str.15, ptr noundef nonnull align 8 dereferenceable(32) %8)
          to label %50 unwind label %52

50:                                               ; preds = %48
  invoke void @_ZNSt13runtime_errorC1ERKNSt7__cxx1112basic_stringIcSt11char_traitsIcESaIcEEE(ptr noundef nonnull align 8 dereferenceable(16) %49, ptr noundef nonnull align 8 dereferenceable(32) %7)
          to label %51 unwind label %56

51:                                               ; preds = %50
  store i1 false, ptr %9, align 1
  invoke void @__cxa_throw(ptr %49, ptr @_ZTISt13runtime_error, ptr @_ZNSt13runtime_errorD1Ev) #15
          to label %87 unwind label %56

52:                                               ; preds = %48
  %53 = landingpad { ptr, i32 }
          cleanup
  %54 = extractvalue { ptr, i32 } %53, 0
  store ptr %54, ptr %5, align 8
  %55 = extractvalue { ptr, i32 } %53, 1
  store i32 %55, ptr %6, align 4
  br label %60

56:                                               ; preds = %51, %50
  %57 = landingpad { ptr, i32 }
          cleanup
  %58 = extractvalue { ptr, i32 } %57, 0
  store ptr %58, ptr %5, align 8
  %59 = extractvalue { ptr, i32 } %57, 1
  store i32 %59, ptr %6, align 4
  call void @_ZNSt7__cxx1112basic_stringIcSt11char_traitsIcESaIcEED2Ev(ptr noundef nonnull align 8 dereferenceable(32) %7) #14
  br label %60

60:                                               ; preds = %56, %52
  call void @_ZNSt7__cxx1112basic_stringIcSt11char_traitsIcESaIcEED2Ev(ptr noundef nonnull align 8 dereferenceable(32) %8) #14
  %61 = load i1, ptr %9, align 1
  br i1 %61, label %62, label %63

62:                                               ; preds = %60
  call void @__cxa_free_exception(ptr %49) #14
  br label %63

63:                                               ; preds = %62, %60
  br label %82

64:                                               ; preds = %44
  %65 = call noundef i64 @_ZN5rfb_t8fb_bytesEv(ptr noundef nonnull align 8 dereferenceable(168) %10)
  %66 = call noalias noundef nonnull ptr @_Znam(i64 noundef %65) #16
  %67 = getelementptr inbounds %class.rfb_t, ptr %10, i32 0, i32 10
  store volatile ptr %66, ptr %67, align 8
  %68 = call noundef i64 @_ZN5rfb_t8fb_bytesEv(ptr noundef nonnull align 8 dereferenceable(168) %10)
  %69 = call noalias noundef nonnull ptr @_Znam(i64 noundef %68) #16
  %70 = getelementptr inbounds %class.rfb_t, ptr %10, i32 0, i32 11
  store volatile ptr %69, ptr %70, align 8
  %71 = getelementptr inbounds %class.rfb_t, ptr %10, i32 0, i32 9
  %72 = call i32 @pthread_create(ptr noundef %71, ptr noundef null, ptr noundef @_Z15rfb_thread_mainPv, ptr noundef %10) #14
  %73 = icmp ne i32 %72, 0
  br i1 %73, label %74, label %81

74:                                               ; preds = %64
  %75 = call ptr @__cxa_allocate_exception(i64 16) #14
  invoke void @_ZNSt13runtime_errorC1EPKc(ptr noundef nonnull align 8 dereferenceable(16) %75, ptr noundef @.str.16)
          to label %76 unwind label %77

76:                                               ; preds = %74
  call void @__cxa_throw(ptr %75, ptr @_ZTISt13runtime_error, ptr @_ZNSt13runtime_errorD1Ev) #15
  unreachable

77:                                               ; preds = %74
  %78 = landingpad { ptr, i32 }
          cleanup
  %79 = extractvalue { ptr, i32 } %78, 0
  store ptr %79, ptr %5, align 8
  %80 = extractvalue { ptr, i32 } %78, 1
  store i32 %80, ptr %6, align 4
  call void @__cxa_free_exception(ptr %75) #14
  br label %82

81:                                               ; preds = %64
  call void @_ZN9command_t7respondEm(ptr noundef nonnull align 8 dereferenceable(48) %1, i64 noundef 1)
  ret void

82:                                               ; preds = %77, %63, %40, %17
  %83 = load ptr, ptr %5, align 8
  %84 = load i32, ptr %6, align 4
  %85 = insertvalue { ptr, i32 } poison, ptr %83, 0
  %86 = insertvalue { ptr, i32 } %85, i32 %84, 1
  resume { ptr, i32 } %86

87:                                               ; preds = %51
  unreachable
}