; Function Attrs: mustprogress uwtable
define void @_ZN5rfb_t16handle_configureE9command_t(ptr noundef nonnull align 8 dereferenceable(168) %0, ptr noundef %1) #0 align 2 personality ptr @__gxx_personality_v0 {
  %3 = alloca i64, align 8
  %4 = alloca %"class.std::__cxx11::basic_string", align 8
  %5 = alloca %"class.std::__cxx11::basic_string", align 8
  %6 = getelementptr inbounds i8, ptr %0, i64 104
  %7 = load volatile ptr, ptr %6, align 8
  %.not = icmp eq ptr %7, null
  br i1 %.not, label %13, label %8

8:                                                ; preds = %2
  %9 = tail call ptr @__cxa_allocate_exception(i64 16) #23
  invoke void @_ZNSt13runtime_errorC1EPKc(ptr noundef nonnull align 8 dereferenceable(16) %9, ptr noundef nonnull @.str.13)
          to label %10 unwind label %11

10:                                               ; preds = %8
  tail call void @__cxa_throw(ptr nonnull %9, ptr nonnull @_ZTISt13runtime_error, ptr nonnull @_ZNSt13runtime_errorD1Ev) #24
  unreachable

11:                                               ; preds = %8
  %12 = landingpad { ptr, i32 }
          cleanup
  tail call void @__cxa_free_exception(ptr %9) #23
  br label %67

13:                                               ; preds = %2
  %14 = getelementptr inbounds i8, ptr %1, i64 8
  %15 = load i64, ptr %14, align 8
  %16 = trunc i64 %15 to i16
  %17 = getelementptr inbounds i8, ptr %0, i64 80
  store i16 %16, ptr %17, align 8
  %18 = load i64, ptr %14, align 8
  %19 = lshr i64 %18, 16
  %20 = trunc i64 %19 to i16
  %21 = getelementptr inbounds i8, ptr %0, i64 82
  store i16 %20, ptr %21, align 2
  %22 = load i64, ptr %14, align 8
  %23 = lshr i64 %22, 32
  %24 = trunc i64 %23 to i16
  %25 = getelementptr inbounds i8, ptr %0, i64 84
  store i16 %24, ptr %25, align 4
  %26 = and i64 %22, 281470681743360
  %.not7 = icmp eq i64 %26, 137438953472
  br i1 %.not7, label %32, label %27

27:                                               ; preds = %13
  %28 = tail call ptr @__cxa_allocate_exception(i64 16) #23
  invoke void @_ZNSt13runtime_errorC1EPKc(ptr noundef nonnull align 8 dereferenceable(16) %28, ptr noundef nonnull @.str.14)
          to label %29 unwind label %30

29:                                               ; preds = %27
  tail call void @__cxa_throw(ptr nonnull %28, ptr nonnull @_ZTISt13runtime_error, ptr nonnull @_ZNSt13runtime_errorD1Ev) #24
  unreachable

30:                                               ; preds = %27
  %31 = landingpad { ptr, i32 }
          cleanup
  tail call void @__cxa_free_exception(ptr %28) #23
  br label %67

32:                                               ; preds = %13
  %33 = and i64 %15, 65535
  %34 = and i64 %19, 65535
  %35 = mul nuw nsw i64 %34, %33
  %36 = and i64 %35, 63
  %.not8 = icmp eq i64 %36, 0
  br i1 %.not8, label %45, label %37

37:                                               ; preds = %32
  %38 = tail call ptr @__cxa_allocate_exception(i64 16) #23
  call void @_ZNSt7__cxx119to_stringEi(ptr dead_on_unwind nonnull writable sret(%"class.std::__cxx11::basic_string") align 8 %5, i32 noundef 256) #23
  invoke void @_ZStplIcSt11char_traitsIcESaIcEENSt7__cxx1112basic_stringIT_T0_T1_EEPKS5_OS8_(ptr dead_on_unwind nonnull writable sret(%"class.std::__cxx11::basic_string") align 8 %4, ptr noundef nonnull @.str.15, ptr noundef nonnull align 8 dereferenceable(32) %5)
          to label %39 unwind label %.thread

39:                                               ; preds = %37
  invoke void @_ZNSt13runtime_errorC1ERKNSt7__cxx1112basic_stringIcSt11char_traitsIcESaIcEEE(ptr noundef nonnull align 8 dereferenceable(16) %38, ptr noundef nonnull align 8 dereferenceable(32) %4)
          to label %40 unwind label %42

40:                                               ; preds = %39
  invoke void @__cxa_throw(ptr nonnull %38, ptr nonnull @_ZTISt13runtime_error, ptr nonnull @_ZNSt13runtime_errorD1Ev) #24
          to label %68 unwind label %42

.thread:                                          ; preds = %37
  %41 = landingpad { ptr, i32 }
          cleanup
  call void @_ZNSt7__cxx1112basic_stringIcSt11char_traitsIcESaIcEED2Ev(ptr noundef nonnull align 8 dereferenceable(32) %5) #23
  br label %44

42:                                               ; preds = %39, %40
  %.0 = phi i1 [ false, %40 ], [ true, %39 ]
  %43 = landingpad { ptr, i32 }
          cleanup
  call void @_ZNSt7__cxx1112basic_stringIcSt11char_traitsIcESaIcEED2Ev(ptr noundef nonnull align 8 dereferenceable(32) %4) #23
  call void @_ZNSt7__cxx1112basic_stringIcSt11char_traitsIcESaIcEED2Ev(ptr noundef nonnull align 8 dereferenceable(32) %5) #23
  br i1 %.0, label %44, label %67

44:                                               ; preds = %.thread, %42
  %.pn15 = phi { ptr, i32 } [ %41, %.thread ], [ %43, %42 ]
  call void @__cxa_free_exception(ptr %38) #23
  br label %67

45:                                               ; preds = %32
  %46 = shl nuw nsw i64 %35, 2
  %47 = tail call noalias noundef nonnull ptr @_Znam(i64 noundef %46) #21
  store volatile ptr %47, ptr %6, align 8
  %48 = tail call noalias noundef nonnull ptr @_Znam(i64 noundef %46) #21
  %49 = getelementptr inbounds i8, ptr %0, i64 112
  store volatile ptr %48, ptr %49, align 8
  %50 = getelementptr inbounds i8, ptr %0, i64 96
  %51 = tail call i32 @pthread_create(ptr noundef nonnull %50, ptr noundef null, ptr noundef nonnull @_Z15rfb_thread_mainPv, ptr noundef nonnull %0) #23
  %.not9 = icmp eq i32 %51, 0
  br i1 %.not9, label %57, label %52

52:                                               ; preds = %45
  %53 = tail call ptr @__cxa_allocate_exception(i64 16) #23
  invoke void @_ZNSt13runtime_errorC1EPKc(ptr noundef nonnull align 8 dereferenceable(16) %53, ptr noundef nonnull @.str.16)
          to label %54 unwind label %55

54:                                               ; preds = %52
  tail call void @__cxa_throw(ptr nonnull %53, ptr nonnull @_ZTISt13runtime_error, ptr nonnull @_ZNSt13runtime_errorD1Ev) #24
  unreachable

55:                                               ; preds = %52
  %56 = landingpad { ptr, i32 }
          cleanup
  tail call void @__cxa_free_exception(ptr %53) #23
  br label %67

57:                                               ; preds = %45
  %58 = load i64, ptr %14, align 8
  %59 = and i64 %58, -281474976710656
  %60 = or disjoint i64 %59, 1
  call void @llvm.lifetime.start.p0(i64 8, ptr nonnull %3)
  store i64 %60, ptr %3, align 8
  %61 = getelementptr inbounds i8, ptr %1, i64 32
  %62 = load ptr, ptr %61, align 8
  %.not.i.i.i = icmp eq ptr %62, null
  br i1 %.not.i.i.i, label %63, label %_ZN9command_t7respondEm.exit

63:                                               ; preds = %57
  tail call void @_ZSt25__throw_bad_function_callv() #24
  unreachable

_ZN9command_t7respondEm.exit:                     ; preds = %57
  %64 = getelementptr inbounds i8, ptr %1, i64 16
  %65 = getelementptr inbounds i8, ptr %1, i64 40
  %66 = load ptr, ptr %65, align 8
  call void %66(ptr noundef nonnull align 8 dereferenceable(16) %64, ptr noundef nonnull align 8 dereferenceable(8) %3)
  call void @llvm.lifetime.end.p0(i64 8, ptr nonnull %3)
  ret void

67:                                               ; preds = %42, %44, %55, %30, %11
  %.pn11 = phi { ptr, i32 } [ %12, %11 ], [ %31, %30 ], [ %.pn15, %44 ], [ %43, %42 ], [ %56, %55 ]
  resume { ptr, i32 } %.pn11

68:                                               ; preds = %40
  unreachable
}